target datalayout = "e-m:e-p270:32:32-p271:32:32-p272:64:64-i64:64-i128:128-f80:128-n8:16:32:64-S128"
target triple = "x86_64-pc-linux-gnu"

%struct.BlockIdData = type { i16, i16 }
%struct.ItemPointerData = type { %struct.BlockIdData, i16 }
%struct.PageHeaderData = type { %struct.PageXLogRecPtr, i16, i16, i16, i16, i16, i16, i32, [0 x %struct.ItemIdData] }
%struct.PageXLogRecPtr = type { i32, i32 }
%struct.ItemIdData = type { i32 }
%struct.GinPageOpaqueData = type { i32, i16, i16 }
%struct.GinPostingList = type { %struct.ItemPointerData, i16, [0 x i8] }

; Function Attrs: inlinehint nounwind uwtable
define internal i32 @BlockIdGetBlockNumber(ptr noundef %0) #2 {
  %2 = alloca ptr, align 8
  store ptr %0, ptr %2, align 8
  %3 = load ptr, ptr %2, align 8
  %4 = getelementptr inbounds nuw %struct.BlockIdData, ptr %3, i32 0, i32 0
  %5 = load i16, ptr %4, align 2
  %6 = zext i16 %5 to i32
  %7 = shl i32 %6, 16
  %8 = load ptr, ptr %2, align 8
  %9 = getelementptr inbounds nuw %struct.BlockIdData, ptr %8, i32 0, i32 1
  %10 = load i16, ptr %9, align 2
  %11 = zext i16 %10 to i32
  %12 = or i32 %7, %11
  ret i32 %12
}

; Function Attrs: inlinehint nounwind uwtable
define internal i32 @pg_cmp_u64(i64 noundef %0, i64 noundef %1) #2 {
  %3 = alloca i64, align 8
  %4 = alloca i64, align 8
  store i64 %0, ptr %3, align 8
  store i64 %1, ptr %4, align 8
  %5 = load i64, ptr %3, align 8
  %6 = load i64, ptr %4, align 8
  %7 = icmp ugt i64 %5, %6
  %8 = zext i1 %7 to i32
  %9 = load i64, ptr %3, align 8
  %10 = load i64, ptr %4, align 8
  %11 = icmp ult i64 %9, %10
  %12 = zext i1 %11 to i32
  %13 = sub i32 %8, %12
  ret i32 %13
}

; Function Attrs: inlinehint nounwind uwtable
define internal zeroext i16 @ItemPointerGetOffsetNumberNoCheck(ptr noundef %0) #2 {
  %2 = alloca ptr, align 8
  store ptr %0, ptr %2, align 8
  %3 = load ptr, ptr %2, align 8
  %4 = getelementptr inbounds nuw %struct.ItemPointerData, ptr %3, i32 0, i32 1
  %5 = load i16, ptr %4, align 2
  ret i16 %5
}

; Function Attrs: inlinehint nounwind uwtable
define internal i32 @ItemPointerGetBlockNumberNoCheck(ptr noundef %0) #2 {
  %2 = alloca ptr, align 8
  store ptr %0, ptr %2, align 8
  %3 = load ptr, ptr %2, align 8
  %4 = getelementptr inbounds nuw %struct.ItemPointerData, ptr %3, i32 0, i32 0
  %5 = call i32 @BlockIdGetBlockNumber(ptr noundef %4)
  ret i32 %5
}

; Function Attrs: nounwind uwtable
define internal ptr @dataLeafPageGetUncompressed(ptr noundef %0, ptr noundef %1) #0 {
  %3 = alloca ptr, align 8
  %4 = alloca ptr, align 8
  %5 = alloca ptr, align 8
  store ptr %0, ptr %3, align 8
  store ptr %1, ptr %4, align 8
  call void @llvm.lifetime.start.p0(i64 8, ptr %5) #7
  %6 = load ptr, ptr %3, align 8
  %7 = call ptr @PageGetContents(ptr noundef %6)
  %8 = getelementptr inbounds nuw i8, ptr %7, i64 8
  store ptr %8, ptr %5, align 8
  %9 = load ptr, ptr %3, align 8
  call void @PageValidateSpecialPointer(ptr noundef %9)
  %10 = load ptr, ptr %3, align 8
  %11 = load ptr, ptr %3, align 8
  %12 = getelementptr inbounds nuw %struct.PageHeaderData, ptr %11, i32 0, i32 5
  %13 = load i16, ptr %12, align 4
  %14 = zext i16 %13 to i32
  %15 = sext i32 %14 to i64
  %16 = getelementptr inbounds i8, ptr %10, i64 %15
  %17 = getelementptr inbounds nuw %struct.GinPageOpaqueData, ptr %16, i32 0, i32 1
  %18 = load i16, ptr %17, align 4
  %19 = zext i16 %18 to i32
  %20 = load ptr, ptr %4, align 8
  store i32 %19, ptr %20, align 4
  %21 = load ptr, ptr %5, align 8
  call void @llvm.lifetime.end.p0(i64 8, ptr %5) #7
  ret ptr %21
}

; Function Attrs: inlinehint nounwind uwtable
define internal i32 @ginCompareItemPointers(ptr noundef %0, ptr noundef %1) #2 {
  %3 = alloca ptr, align 8
  %4 = alloca ptr, align 8
  %5 = alloca i64, align 8
  %6 = alloca i64, align 8
  store ptr %0, ptr %3, align 8
  store ptr %1, ptr %4, align 8
  call void @llvm.lifetime.start.p0(i64 8, ptr %5) #7
  %7 = load ptr, ptr %3, align 8
  %8 = call i32 @ItemPointerGetBlockNumberNoCheck(ptr noundef %7)
  %9 = zext i32 %8 to i64
  %10 = shl i64 %9, 32
  %11 = load ptr, ptr %3, align 8
  %12 = call zeroext i16 @ItemPointerGetOffsetNumberNoCheck(ptr noundef %11)
  %13 = zext i16 %12 to i64
  %14 = or i64 %10, %13
  store i64 %14, ptr %5, align 8
  call void @llvm.lifetime.start.p0(i64 8, ptr %6) #7
  %15 = load ptr, ptr %4, align 8
  %16 = call i32 @ItemPointerGetBlockNumberNoCheck(ptr noundef %15)
  %17 = zext i32 %16 to i64
  %18 = shl i64 %17, 32
  %19 = load ptr, ptr %4, align 8
  %20 = call zeroext i16 @ItemPointerGetOffsetNumberNoCheck(ptr noundef %19)
  %21 = zext i16 %20 to i64
  %22 = or i64 %18, %21
  store i64 %22, ptr %6, align 8
  %23 = load i64, ptr %5, align 8
  %24 = load i64, ptr %6, align 8
  %25 = call i32 @pg_cmp_u64(i64 noundef %23, i64 noundef %24)
  call void @llvm.lifetime.end.p0(i64 8, ptr %6) #7
  call void @llvm.lifetime.end.p0(i64 8, ptr %5) #7
  ret i32 %25
}

; Function Attrs: inlinehint nounwind uwtable
define internal zeroext i1 @ItemPointerIsValid(ptr noundef %0) #2 {
  %2 = alloca ptr, align 8
  store ptr %0, ptr %2, align 8
  %3 = load ptr, ptr %2, align 8
  %4 = icmp ne ptr %3, null
  br i1 %4, label %5, label %11

5:                                                ; preds = %1
  %6 = load ptr, ptr %2, align 8
  %7 = getelementptr inbounds nuw %struct.ItemPointerData, ptr %6, i32 0, i32 1
  %8 = load i16, ptr %7, align 2
  %9 = zext i16 %8 to i32
  %10 = icmp ne i32 %9, 0
  br label %11

11:                                               ; preds = %5, %1
  %12 = phi i1 [ false, %1 ], [ %10, %5 ]
  ret i1 %12
}

; Function Attrs: inlinehint nounwind uwtable
define internal ptr @PageGetContents(ptr noundef %0) #2 {
  %2 = alloca ptr, align 8
  store ptr %0, ptr %2, align 8
  %3 = load ptr, ptr %2, align 8
  %4 = getelementptr inbounds nuw i8, ptr %3, i64 24
  ret ptr %4
}

; Function Attrs: inlinehint nounwind uwtable
define internal void @PageValidateSpecialPointer(ptr noundef %0) #2 {
  %2 = alloca ptr, align 8
  store ptr %0, ptr %2, align 8
  ret void
}

; Function Attrs: nounwind uwtable
define dso_local ptr @GinDataLeafPageGetItems(ptr noundef %0, ptr noundef %1, i48 %2) #0 {
  %4 = alloca %struct.ItemPointerData, align 2
  %5 = alloca ptr, align 8
  %6 = alloca ptr, align 8
  %7 = alloca ptr, align 8
  %8 = alloca ptr, align 8
  %9 = alloca i64, align 8
  %10 = alloca ptr, align 8
  %11 = alloca ptr, align 8
  %12 = alloca ptr, align 8
  store i48 %2, ptr %4, align 2
  store ptr %0, ptr %5, align 8
  store ptr %1, ptr %6, align 8
  call void @llvm.lifetime.start.p0(i64 8, ptr %7) #7
  %13 = load ptr, ptr %5, align 8
  call void @PageValidateSpecialPointer(ptr noundef %13)
  %14 = load ptr, ptr %5, align 8
  %15 = load ptr, ptr %5, align 8
  %16 = getelementptr inbounds nuw %struct.PageHeaderData, ptr %15, i32 0, i32 5
  %17 = load i16, ptr %16, align 4
  %18 = zext i16 %17 to i32
  %19 = sext i32 %18 to i64
  %20 = getelementptr inbounds i8, ptr %14, i64 %19
  %21 = getelementptr inbounds nuw %struct.GinPageOpaqueData, ptr %20, i32 0, i32 2
  %22 = load i16, ptr %21, align 2
  %23 = zext i16 %22 to i32
  %24 = and i32 %23, 128
  %25 = icmp ne i32 %24, 0
  br i1 %25, label %26, label %90

26:                                               ; preds = %3
  call void @llvm.lifetime.start.p0(i64 8, ptr %8) #7
  %27 = load ptr, ptr %5, align 8
  %28 = call ptr @PageGetContents(ptr noundef %27)
  %29 = getelementptr inbounds nuw i8, ptr %28, i64 8
  store ptr %29, ptr %8, align 8
  call void @llvm.lifetime.start.p0(i64 8, ptr %9) #7
  %30 = load ptr, ptr %5, align 8
  %31 = getelementptr inbounds nuw %struct.PageHeaderData, ptr %30, i32 0, i32 3
  %32 = load i16, ptr %31, align 4
  %33 = zext i16 %32 to i64
  %34 = sub i64 %33, 24
  %35 = sub i64 %34, 8
  store i64 %35, ptr %9, align 8
  call void @llvm.lifetime.start.p0(i64 8, ptr %10) #7
  %36 = load ptr, ptr %8, align 8
  %37 = load i64, ptr %9, align 8
  %38 = getelementptr inbounds nuw i8, ptr %36, i64 %37
  store ptr %38, ptr %10, align 8
  call void @llvm.lifetime.start.p0(i64 8, ptr %11) #7
  %39 = call zeroext i1 @ItemPointerIsValid(ptr noundef %4)
  br i1 %39, label %40, label %78

40:                                               ; preds = %26
  %41 = load ptr, ptr %8, align 8
  %42 = load ptr, ptr %8, align 8
  %43 = getelementptr inbounds nuw %struct.GinPostingList, ptr %42, i32 0, i32 1
  %44 = load i16, ptr %43, align 2
  %45 = zext i16 %44 to i64
  %46 = add i64 %45, 1
  %47 = and i64 %46, -2
  %48 = add i64 8, %47
  %49 = getelementptr inbounds nuw i8, ptr %41, i64 %48
  store ptr %49, ptr %11, align 8
  br label %50

50:                                               ; preds = %61, %40
  %51 = load ptr, ptr %11, align 8
  %52 = load ptr, ptr %10, align 8
  %53 = icmp ult ptr %51, %52
  br i1 %53, label %54, label %59

54:                                               ; preds = %50
  %55 = load ptr, ptr %11, align 8
  %56 = getelementptr inbounds nuw %struct.GinPostingList, ptr %55, i32 0, i32 0
  %57 = call i32 @ginCompareItemPointers(ptr noundef %56, ptr noundef %4)
  %58 = icmp sle i32 %57, 0
  br label %59

59:                                               ; preds = %54, %50
  %60 = phi i1 [ false, %50 ], [ %58, %54 ]
  br i1 %60, label %61, label %72

61:                                               ; preds = %59
  %62 = load ptr, ptr %11, align 8
  store ptr %62, ptr %8, align 8
  %63 = load ptr, ptr %8, align 8
  %64 = load ptr, ptr %8, align 8
  %65 = getelementptr inbounds nuw %struct.GinPostingList, ptr %64, i32 0, i32 1
  %66 = load i16, ptr %65, align 2
  %67 = zext i16 %66 to i64
  %68 = add i64 %67, 1
  %69 = and i64 %68, -2
  %70 = add i64 8, %69
  %71 = getelementptr inbounds nuw i8, ptr %63, i64 %70
  store ptr %71, ptr %11, align 8
  br label %50, !llvm.loop !4

72:                                               ; preds = %59
  %73 = load ptr, ptr %10, align 8
  %74 = load ptr, ptr %8, align 8
  %75 = ptrtoint ptr %73 to i64
  %76 = ptrtoint ptr %74 to i64
  %77 = sub i64 %75, %76
  store i64 %77, ptr %9, align 8
  br label %78

78:                                               ; preds = %72, %26
  %79 = load i64, ptr %9, align 8
  %80 = icmp ugt i64 %79, 0
  br i1 %80, label %81, label %87

81:                                               ; preds = %78
  %82 = load ptr, ptr %8, align 8
  %83 = load i64, ptr %9, align 8
  %84 = trunc i64 %83 to i32
  %85 = load ptr, ptr %6, align 8
  %86 = call ptr @ginPostingListDecodeAllSegments(ptr noundef %82, i32 noundef %84, ptr noundef %85)
  store ptr %86, ptr %7, align 8
  br label %89

87:                                               ; preds = %78
  store ptr null, ptr %7, align 8
  %88 = load ptr, ptr %6, align 8
  store i32 0, ptr %88, align 4
  br label %89

89:                                               ; preds = %87, %81
  call void @llvm.lifetime.end.p0(i64 8, ptr %11) #7
  call void @llvm.lifetime.end.p0(i64 8, ptr %10) #7
  call void @llvm.lifetime.end.p0(i64 8, ptr %9) #7
  call void @llvm.lifetime.end.p0(i64 8, ptr %8) #7
  br label %105

90:                                               ; preds = %3
  call void @llvm.lifetime.start.p0(i64 8, ptr %12) #7
  %91 = load ptr, ptr %5, align 8
  %92 = load ptr, ptr %6, align 8
  %93 = call ptr @dataLeafPageGetUncompressed(ptr noundef %91, ptr noundef %92)
  store ptr %93, ptr %12, align 8
  %94 = load ptr, ptr %6, align 8
  %95 = load i32, ptr %94, align 4
  %96 = sext i32 %95 to i64
  %97 = mul i64 %96, 6
  %98 = call ptr @palloc(i64 noundef %97)
  store ptr %98, ptr %7, align 8
  %99 = load ptr, ptr %7, align 8
  %100 = load ptr, ptr %12, align 8
  %101 = load ptr, ptr %6, align 8
  %102 = load i32, ptr %101, align 4
  %103 = sext i32 %102 to i64
  %104 = mul i64 %103, 6
  call void @llvm.memcpy.p0.p0.i64(ptr align 2 %99, ptr align 2 %100, i64 %104, i1 false)
  call void @llvm.lifetime.end.p0(i64 8, ptr %12) #7
  br label %105

105:                                              ; preds = %90, %89
  %106 = load ptr, ptr %7, align 8
  call void @llvm.lifetime.end.p0(i64 8, ptr %7) #7
  ret ptr %106
}