; Function Attrs: nounwind uwtable
define dso_local ptr @GinDataLeafPageGetItems(ptr noundef %0, ptr noundef %1, i48 %2) local_unnamed_addr #0 {
  %.sroa.3.0.extract.shift = lshr i48 %2, 32
  %4 = getelementptr inbounds nuw i8, ptr %0, i64 16
  %5 = load i16, ptr %4, align 4
  %6 = zext i16 %5 to i64
  %7 = getelementptr inbounds nuw i8, ptr %0, i64 %6
  %8 = getelementptr inbounds nuw i8, ptr %7, i64 6
  %9 = load i16, ptr %8, align 2
  %10 = and i16 %9, 128
  %.not = icmp eq i16 %10, 0
  %11 = getelementptr inbounds nuw i8, ptr %0, i64 32
  br i1 %.not, label %69, label %12

12:                                               ; preds = %3
  %13 = getelementptr inbounds nuw i8, ptr %0, i64 12
  %14 = load i16, ptr %13, align 4
  %15 = zext i16 %14 to i64
  %16 = add nsw i64 %15, -32
  %17 = getelementptr i8, ptr %0, i64 %15
  %.not33 = icmp ult i48 %2, 4294967296
  br i1 %.not33, label %64, label %18

18:                                               ; preds = %12
  %19 = getelementptr inbounds nuw i8, ptr %0, i64 38
  %20 = load i16, ptr %19, align 2
  %21 = zext i16 %20 to i64
  %22 = add nuw nsw i64 %21, 1
  %23 = and i64 %22, 131070
  %24 = getelementptr inbounds nuw i8, ptr %11, i64 %23
  %.02835 = getelementptr inbounds nuw i8, ptr %24, i64 8
  %25 = icmp ult ptr %.02835, %17
  br i1 %25, label %.lr.ph, label %.critedge

.lr.ph:                                           ; preds = %18
  %26 = and i48 %2, 65535
  %27 = zext nneg i48 %26 to i64
  %28 = shl nuw i64 %27, 48
  %29 = shl i48 %2, 16
  %30 = and i48 %29, -4294967296
  %31 = zext i48 %30 to i64
  %32 = or disjoint i64 %28, %31
  %33 = zext nneg i48 %.sroa.3.0.extract.shift to i64
  %34 = or disjoint i64 %32, %33
  %.val.i41 = load i16, ptr %.02835, align 2
  %35 = getelementptr i8, ptr %24, i64 10
  %.val5.i42 = load i16, ptr %35, align 2
  %36 = zext i16 %.val.i41 to i64
  %37 = zext i16 %.val5.i42 to i64
  %38 = shl nuw i64 %36, 48
  %39 = shl nuw nsw i64 %37, 32
  %40 = or disjoint i64 %39, %38
  %41 = getelementptr i8, ptr %24, i64 12
  %.val8.i43 = load i16, ptr %41, align 2
  %42 = zext i16 %.val8.i43 to i64
  %43 = or disjoint i64 %40, %42
  %.not3444 = icmp ugt i64 %43, %34
  br i1 %.not3444, label %.critedge, label %.lr.ph47

44:                                               ; preds = %.lr.ph47
  %.val.i = load i16, ptr %.028, align 2
  %45 = getelementptr i8, ptr %59, i64 10
  %.val5.i = load i16, ptr %45, align 2
  %46 = zext i16 %.val.i to i64
  %47 = zext i16 %.val5.i to i64
  %48 = shl nuw i64 %46, 48
  %49 = shl nuw nsw i64 %47, 32
  %50 = or disjoint i64 %49, %48
  %51 = getelementptr i8, ptr %59, i64 12
  %.val8.i = load i16, ptr %51, align 2
  %52 = zext i16 %.val8.i to i64
  %53 = or disjoint i64 %50, %52
  %.not34 = icmp ugt i64 %53, %34
  br i1 %.not34, label %.critedge, label %.lr.ph47, !llvm.loop !4

.lr.ph47:                                         ; preds = %.lr.ph, %44
  %.pn3746 = phi ptr [ %59, %44 ], [ %24, %.lr.ph ]
  %.0283845 = phi ptr [ %.028, %44 ], [ %.02835, %.lr.ph ]
  %54 = getelementptr inbounds nuw i8, ptr %.pn3746, i64 14
  %55 = load i16, ptr %54, align 2
  %56 = zext i16 %55 to i64
  %57 = add nuw nsw i64 %56, 1
  %58 = and i64 %57, 131070
  %59 = getelementptr inbounds nuw i8, ptr %.0283845, i64 %58
  %.028 = getelementptr inbounds nuw i8, ptr %59, i64 8
  %60 = icmp ult ptr %.028, %17
  br i1 %60, label %44, label %.critedge, !llvm.loop !4

.critedge:                                        ; preds = %.lr.ph47, %44, %.lr.ph, %18
  %.130.lcssa = phi ptr [ %11, %18 ], [ %11, %.lr.ph ], [ %.0283845, %44 ], [ %.0283845, %.lr.ph47 ]
  %61 = ptrtoint ptr %17 to i64
  %62 = ptrtoint ptr %.130.lcssa to i64
  %63 = sub i64 %61, %62
  br label %64

64:                                               ; preds = %.critedge, %12
  %.031 = phi i64 [ %63, %.critedge ], [ %16, %12 ]
  %.029 = phi ptr [ %.130.lcssa, %.critedge ], [ %11, %12 ]
  %.not32 = icmp eq i64 %.031, 0
  br i1 %.not32, label %68, label %65

65:                                               ; preds = %64
  %66 = trunc i64 %.031 to i32
  %67 = tail call ptr @ginPostingListDecodeAllSegments(ptr noundef nonnull %.029, i32 noundef %66, ptr noundef %1) #11
  br label %79

68:                                               ; preds = %64
  store i32 0, ptr %1, align 4
  br label %79

69:                                               ; preds = %3
  %70 = getelementptr inbounds nuw i8, ptr %7, i64 4
  %71 = load i16, ptr %70, align 4
  %72 = zext i16 %71 to i32
  store i32 %72, ptr %1, align 4
  %73 = zext i16 %71 to i64
  %74 = mul nuw nsw i64 %73, 6
  %75 = tail call ptr @palloc(i64 noundef %74) #11
  %76 = load i32, ptr %1, align 4
  %77 = sext i32 %76 to i64
  %78 = mul nsw i64 %77, 6
  tail call void @llvm.memcpy.p0.p0.i64(ptr align 2 %75, ptr nonnull align 2 %11, i64 %78, i1 false)
  br label %79

79:                                               ; preds = %65, %68, %69
  %.1 = phi ptr [ %75, %69 ], [ %67, %65 ], [ null, %68 ]
  ret ptr %.1
}